
driverDevelopment.elf:     file format elf32-littlearm

Sections:
Idx Name          Size      VMA       LMA       File off  Algn
  0 .isr_vector   00000188  08000000  08000000  00010000  2**0
                  CONTENTS, ALLOC, LOAD, READONLY, DATA
  1 .text         00000a78  08000188  08000188  00010188  2**2
                  CONTENTS, ALLOC, LOAD, READONLY, CODE
  2 .rodata       0000001c  08000c00  08000c00  00010c00  2**2
                  CONTENTS, ALLOC, LOAD, READONLY, DATA
  3 .ARM.extab    00000000  08000c1c  08000c1c  00010c24  2**0
                  CONTENTS
  4 .ARM          00000000  08000c1c  08000c1c  00010c24  2**0
                  CONTENTS
  5 .preinit_array 00000000  08000c1c  08000c24  00010c24  2**0
                  CONTENTS, ALLOC, LOAD, DATA
  6 .init_array   00000004  08000c1c  08000c1c  00010c1c  2**2
                  CONTENTS, ALLOC, LOAD, DATA
  7 .fini_array   00000004  08000c20  08000c20  00010c20  2**2
                  CONTENTS, ALLOC, LOAD, DATA
  8 .data         00000000  20000000  20000000  00010c24  2**0
                  CONTENTS, ALLOC, LOAD, DATA
  9 .ccmram       00000000  10000000  10000000  00010c24  2**0
                  CONTENTS
 10 .bss          00000058  20000000  20000000  00020000  2**2
                  ALLOC
 11 ._user_heap_stack 00000600  20000058  20000058  00020000  2**0
                  ALLOC
 12 .ARM.attributes 0000002a  00000000  00000000  00010c24  2**0
                  CONTENTS, READONLY
 13 .comment      00000043  00000000  00000000  00010c4e  2**0
                  CONTENTS, READONLY
 14 .debug_info   0000170d  00000000  00000000  00010c91  2**0
                  CONTENTS, READONLY, DEBUGGING, OCTETS
 15 .debug_abbrev 000006a3  00000000  00000000  0001239e  2**0
                  CONTENTS, READONLY, DEBUGGING, OCTETS
 16 .debug_aranges 00000180  00000000  00000000  00012a48  2**3
                  CONTENTS, READONLY, DEBUGGING, OCTETS
 17 .debug_rnglists 0000010b  00000000  00000000  00012bc8  2**0
                  CONTENTS, READONLY, DEBUGGING, OCTETS
 18 .debug_macro  00002892  00000000  00000000  00012cd3  2**0
                  CONTENTS, READONLY, DEBUGGING, OCTETS
 19 .debug_line   00002740  00000000  00000000  00015565  2**0
                  CONTENTS, READONLY, DEBUGGING, OCTETS
 20 .debug_str    0000a22b  00000000  00000000  00017ca5  2**0
                  CONTENTS, READONLY, DEBUGGING, OCTETS
 21 .debug_frame  0000049c  00000000  00000000  00021ed0  2**2
                  CONTENTS, READONLY, DEBUGGING, OCTETS
 22 .debug_line_str 0000004e  00000000  00000000  0002236c  2**0
                  CONTENTS, READONLY, DEBUGGING, OCTETS

Disassembly of section .text:

08000188 <__do_global_dtors_aux>:
 8000188:	b510      	push	{r4, lr}
 800018a:	4c05      	ldr	r4, [pc, #20]	; (80001a0 <__do_global_dtors_aux+0x18>)
 800018c:	7823      	ldrb	r3, [r4, #0]
 800018e:	b933      	cbnz	r3, 800019e <__do_global_dtors_aux+0x16>
 8000190:	4b04      	ldr	r3, [pc, #16]	; (80001a4 <__do_global_dtors_aux+0x1c>)
 8000192:	b113      	cbz	r3, 800019a <__do_global_dtors_aux+0x12>
 8000194:	4804      	ldr	r0, [pc, #16]	; (80001a8 <__do_global_dtors_aux+0x20>)
 8000196:	f3af 8000 	nop.w
 800019a:	2301      	movs	r3, #1
 800019c:	7023      	strb	r3, [r4, #0]
 800019e:	bd10      	pop	{r4, pc}
 80001a0:	20000000 	.word	0x20000000
 80001a4:	00000000 	.word	0x00000000
 80001a8:	08000be8 	.word	0x08000be8

080001ac <frame_dummy>:
 80001ac:	b508      	push	{r3, lr}
 80001ae:	4b03      	ldr	r3, [pc, #12]	; (80001bc <frame_dummy+0x10>)
 80001b0:	b11b      	cbz	r3, 80001ba <frame_dummy+0xe>
 80001b2:	4903      	ldr	r1, [pc, #12]	; (80001c0 <frame_dummy+0x14>)
 80001b4:	4803      	ldr	r0, [pc, #12]	; (80001c4 <frame_dummy+0x18>)
 80001b6:	f3af 8000 	nop.w
 80001ba:	bd08      	pop	{r3, pc}
 80001bc:	00000000 	.word	0x00000000
 80001c0:	20000004 	.word	0x20000004
 80001c4:	08000be8 	.word	0x08000be8

080001c8 <strlen>:
 80001c8:	4603      	mov	r3, r0
 80001ca:	f813 2b01 	ldrb.w	r2, [r3], #1
 80001ce:	2a00      	cmp	r2, #0
 80001d0:	d1fb      	bne.n	80001ca <strlen+0x2>
 80001d2:	1a18      	subs	r0, r3, r0
 80001d4:	3801      	subs	r0, #1
 80001d6:	4770      	bx	lr

080001d8 <USART2_IRQHandler>:




void USART2_IRQHandler()
{
 80001d8:	b580      	push	{r7, lr}
 80001da:	af00      	add	r7, sp, #0
	USART_InterruptHandler(&USART_Handle);
 80001dc:	4806      	ldr	r0, [pc, #24]	; (80001f8 <USART2_IRQHandler+0x20>)
 80001de:	f000 fc9f 	bl	8000b20 <USART_InterruptHandler>

    if (USART_Handle.RxStatus == USART_BUS_FREE)
 80001e2:	4b05      	ldr	r3, [pc, #20]	; (80001f8 <USART2_IRQHandler+0x20>)
 80001e4:	f893 3032 	ldrb.w	r3, [r3, #50]	; 0x32
 80001e8:	2b00      	cmp	r3, #0
 80001ea:	d102      	bne.n	80001f2 <USART2_IRQHandler+0x1a>
    {
        rxCompleteFlag = 1;
 80001ec:	4b03      	ldr	r3, [pc, #12]	; (80001fc <USART2_IRQHandler+0x24>)
 80001ee:	2201      	movs	r2, #1
 80001f0:	701a      	strb	r2, [r3, #0]
    }
}
 80001f2:	bf00      	nop
 80001f4:	bd80      	pop	{r7, pc}
 80001f6:	bf00      	nop
 80001f8:	2000001c 	.word	0x2000001c
 80001fc:	20000054 	.word	0x20000054

08000200 <main>:

int main(void)
{
 8000200:	b580      	push	{r7, lr}
 8000202:	b084      	sub	sp, #16
 8000204:	af00      	add	r7, sp, #0
	char rData[10] = { 0 };
 8000206:	2300      	movs	r3, #0
 8000208:	607b      	str	r3, [r7, #4]
 800020a:	f107 0308 	add.w	r3, r7, #8
 800020e:	2200      	movs	r2, #0
 8000210:	601a      	str	r2, [r3, #0]
 8000212:	809a      	strh	r2, [r3, #4]
	GPIO_Config();
 8000214:	f000 f85e 	bl	80002d4 <GPIO_Config>
	UART_Config();
 8000218:	f000 f81c 	bl	8000254 <UART_Config>

	//USART_TransmitData_IT(&USART_Handle,(uint8_t*)dataSend, sizeof(dataSend));
	USART_ReceiveData_IT(&USART_Handle,(uint8_t*)rData, 10);
 800021c:	1d3b      	adds	r3, r7, #4
 800021e:	220a      	movs	r2, #10
 8000220:	4619      	mov	r1, r3
 8000222:	480a      	ldr	r0, [pc, #40]	; (800024c <main+0x4c>)
 8000224:	f000 fc50 	bl	8000ac8 <USART_ReceiveData_IT>
	//USART_ReceiveData(&USART_Handle, (uint8_t*)dataSend, 10);

    while (!rxCompleteFlag) {
 8000228:	bf00      	nop
 800022a:	4b09      	ldr	r3, [pc, #36]	; (8000250 <main+0x50>)
 800022c:	781b      	ldrb	r3, [r3, #0]
 800022e:	2b00      	cmp	r3, #0
 8000230:	d0fb      	beq.n	800022a <main+0x2a>
        // Bekle veya diğer işlemleri yap
    }

	USART_TransmitData_IT(&USART_Handle,(uint8_t*)rData, strlen(rData));
 8000232:	1d3b      	adds	r3, r7, #4
 8000234:	4618      	mov	r0, r3
 8000236:	f7ff ffc7 	bl	80001c8 <strlen>
 800023a:	4603      	mov	r3, r0
 800023c:	b29a      	uxth	r2, r3
 800023e:	1d3b      	adds	r3, r7, #4
 8000240:	4619      	mov	r1, r3
 8000242:	4802      	ldr	r0, [pc, #8]	; (800024c <main+0x4c>)
 8000244:	f000 fc14 	bl	8000a70 <USART_TransmitData_IT>
	//USART_TransmitData(&USART_Handle, (uint8_t*)rData, strlen(rData));

	while(1)
 8000248:	e7fe      	b.n	8000248 <main+0x48>
 800024a:	bf00      	nop
 800024c:	2000001c 	.word	0x2000001c
 8000250:	20000054 	.word	0x20000054

08000254 <UART_Config>:

	}
}

static void UART_Config(void)
{
 8000254:	b580      	push	{r7, lr}
 8000256:	b082      	sub	sp, #8
 8000258:	af00      	add	r7, sp, #0
	RCC_USART2_CLK_ENABLE();
 800025a:	2300      	movs	r3, #0
 800025c:	607b      	str	r3, [r7, #4]
 800025e:	4b1a      	ldr	r3, [pc, #104]	; (80002c8 <UART_Config+0x74>)
 8000260:	6c1b      	ldr	r3, [r3, #64]	; 0x40
 8000262:	4a19      	ldr	r2, [pc, #100]	; (80002c8 <UART_Config+0x74>)
 8000264:	f443 3300 	orr.w	r3, r3, #131072	; 0x20000
 8000268:	6413      	str	r3, [r2, #64]	; 0x40
 800026a:	4b17      	ldr	r3, [pc, #92]	; (80002c8 <UART_Config+0x74>)
 800026c:	6c1b      	ldr	r3, [r3, #64]	; 0x40
 800026e:	4a16      	ldr	r2, [pc, #88]	; (80002c8 <UART_Config+0x74>)
 8000270:	f443 3300 	orr.w	r3, r3, #131072	; 0x20000
 8000274:	6413      	str	r3, [r2, #64]	; 0x40
 8000276:	607b      	str	r3, [r7, #4]

	USART_Handle.Instance = USART2;
 8000278:	4b14      	ldr	r3, [pc, #80]	; (80002cc <UART_Config+0x78>)
 800027a:	4a15      	ldr	r2, [pc, #84]	; (80002d0 <UART_Config+0x7c>)
 800027c:	601a      	str	r2, [r3, #0]
	USART_Handle.Init.BaudRate = 115200;
 800027e:	4b13      	ldr	r3, [pc, #76]	; (80002cc <UART_Config+0x78>)
 8000280:	f44f 32e1 	mov.w	r2, #115200	; 0x1c200
 8000284:	605a      	str	r2, [r3, #4]
	USART_Handle.Init.HardwareFlowControl = USART_HW_NONE;
 8000286:	4b11      	ldr	r3, [pc, #68]	; (80002cc <UART_Config+0x78>)
 8000288:	2200      	movs	r2, #0
 800028a:	619a      	str	r2, [r3, #24]
	USART_Handle.Init.Mode = USART_MODE_Tx_Rx;
 800028c:	4b0f      	ldr	r3, [pc, #60]	; (80002cc <UART_Config+0x78>)
 800028e:	220c      	movs	r2, #12
 8000290:	61da      	str	r2, [r3, #28]
	USART_Handle.Init.OverSampling = USART_OVERSAMPLE_BY16;
 8000292:	4b0e      	ldr	r3, [pc, #56]	; (80002cc <UART_Config+0x78>)
 8000294:	2200      	movs	r2, #0
 8000296:	609a      	str	r2, [r3, #8]
	USART_Handle.Init.Parity = USART_PARITY_NONE;
 8000298:	4b0c      	ldr	r3, [pc, #48]	; (80002cc <UART_Config+0x78>)
 800029a:	2200      	movs	r2, #0
 800029c:	611a      	str	r2, [r3, #16]
	USART_Handle.Init.StopBits = USART_STOPBITS_1;
 800029e:	4b0b      	ldr	r3, [pc, #44]	; (80002cc <UART_Config+0x78>)
 80002a0:	2200      	movs	r2, #0
 80002a2:	615a      	str	r2, [r3, #20]
	USART_Handle.Init.WordLength = USART_WORDLENGTH_8Bits;
 80002a4:	4b09      	ldr	r3, [pc, #36]	; (80002cc <UART_Config+0x78>)
 80002a6:	2200      	movs	r2, #0
 80002a8:	60da      	str	r2, [r3, #12]

	USART_Init(&USART_Handle);
 80002aa:	4808      	ldr	r0, [pc, #32]	; (80002cc <UART_Config+0x78>)
 80002ac:	f000 fb06 	bl	80008bc <USART_Init>
	USART_PeriphCmd(&USART_Handle, ENABLE);
 80002b0:	2101      	movs	r1, #1
 80002b2:	4806      	ldr	r0, [pc, #24]	; (80002cc <UART_Config+0x78>)
 80002b4:	f000 fbbe 	bl	8000a34 <USART_PeriphCmd>

	NVIC_EnableInterrupt(USART2_IRQNumber);
 80002b8:	2026      	movs	r0, #38	; 0x26
 80002ba:	f000 f868 	bl	800038e <NVIC_EnableInterrupt>
}
 80002be:	bf00      	nop
 80002c0:	3708      	adds	r7, #8
 80002c2:	46bd      	mov	sp, r7
 80002c4:	bd80      	pop	{r7, pc}
 80002c6:	bf00      	nop
 80002c8:	40023800 	.word	0x40023800
 80002cc:	2000001c 	.word	0x2000001c
 80002d0:	40004400 	.word	0x40004400

080002d4 <GPIO_Config>:

static void GPIO_Config(void)
{
 80002d4:	b580      	push	{r7, lr}
 80002d6:	b088      	sub	sp, #32
 80002d8:	af00      	add	r7, sp, #0
	RCC_GPIOA_CLK_ENABLE();
 80002da:	2300      	movs	r3, #0
 80002dc:	61fb      	str	r3, [r7, #28]
 80002de:	4b15      	ldr	r3, [pc, #84]	; (8000334 <GPIO_Config+0x60>)
 80002e0:	6b1b      	ldr	r3, [r3, #48]	; 0x30
 80002e2:	4a14      	ldr	r2, [pc, #80]	; (8000334 <GPIO_Config+0x60>)
 80002e4:	f043 0301 	orr.w	r3, r3, #1
 80002e8:	6313      	str	r3, [r2, #48]	; 0x30
 80002ea:	4b12      	ldr	r3, [pc, #72]	; (8000334 <GPIO_Config+0x60>)
 80002ec:	6b1b      	ldr	r3, [r3, #48]	; 0x30
 80002ee:	4a11      	ldr	r2, [pc, #68]	; (8000334 <GPIO_Config+0x60>)
 80002f0:	f043 0301 	orr.w	r3, r3, #1
 80002f4:	6313      	str	r3, [r2, #48]	; 0x30
 80002f6:	61fb      	str	r3, [r7, #28]
	GPIO_InitTypeDef_t GPIO_InitStruct = { 0 };
 80002f8:	1d3b      	adds	r3, r7, #4
 80002fa:	2200      	movs	r2, #0
 80002fc:	601a      	str	r2, [r3, #0]
 80002fe:	605a      	str	r2, [r3, #4]
 8000300:	609a      	str	r2, [r3, #8]
 8000302:	60da      	str	r2, [r3, #12]
 8000304:	611a      	str	r2, [r3, #16]
 8000306:	615a      	str	r2, [r3, #20]

	GPIO_InitStruct.pinNumber = GPIO_PIN_2 | GPIO_PIN_3;
 8000308:	230c      	movs	r3, #12
 800030a:	607b      	str	r3, [r7, #4]
	GPIO_InitStruct.Speed = GPIO_SPEED_HIGH;
 800030c:	2302      	movs	r3, #2
 800030e:	617b      	str	r3, [r7, #20]
	GPIO_InitStruct.PuPd = GPIO_PUPD_NOPULL;
 8000310:	2300      	movs	r3, #0
 8000312:	613b      	str	r3, [r7, #16]
	GPIO_InitStruct.Otype = GPIO_OTYPE_PP;
 8000314:	2300      	movs	r3, #0
 8000316:	60fb      	str	r3, [r7, #12]
	GPIO_InitStruct.Mode = GPIO_MODE_AF;
 8000318:	2302      	movs	r3, #2
 800031a:	60bb      	str	r3, [r7, #8]
	GPIO_InitStruct.Alternate = GPIO_AF7;
 800031c:	2307      	movs	r3, #7
 800031e:	61bb      	str	r3, [r7, #24]

	GPIO_Init(GPIOA, &GPIO_InitStruct);
 8000320:	1d3b      	adds	r3, r7, #4
 8000322:	4619      	mov	r1, r3
 8000324:	4804      	ldr	r0, [pc, #16]	; (8000338 <GPIO_Config+0x64>)
 8000326:	f000 f865 	bl	80003f4 <GPIO_Init>
};
 800032a:	bf00      	nop
 800032c:	3720      	adds	r7, #32
 800032e:	46bd      	mov	sp, r7
 8000330:	bd80      	pop	{r7, pc}
 8000332:	bf00      	nop
 8000334:	40023800 	.word	0x40023800
 8000338:	40020000 	.word	0x40020000

0800033c <Reset_Handler>:

  .section .text.Reset_Handler
  .weak Reset_Handler
  .type Reset_Handler, %function
Reset_Handler:
  ldr   r0, =_estack
 800033c:	480d      	ldr	r0, [pc, #52]	; (8000374 <LoopForever+0x2>)
  mov   sp, r0          /* set stack pointer */
 800033e:	4685      	mov	sp, r0
/* Call the clock system initialization function.*/
  bl  SystemInit
 8000340:	f3af 8000 	nop.w

/* Copy the data segment initializers from flash to SRAM */
  ldr r0, =_sdata
 8000344:	480c      	ldr	r0, [pc, #48]	; (8000378 <LoopForever+0x6>)
  ldr r1, =_edata
 8000346:	490d      	ldr	r1, [pc, #52]	; (800037c <LoopForever+0xa>)
  ldr r2, =_sidata
 8000348:	4a0d      	ldr	r2, [pc, #52]	; (8000380 <LoopForever+0xe>)
  movs r3, #0
 800034a:	2300      	movs	r3, #0
  b LoopCopyDataInit
 800034c:	e002      	b.n	8000354 <LoopCopyDataInit>

0800034e <CopyDataInit>:

CopyDataInit:
  ldr r4, [r2, r3]
 800034e:	58d4      	ldr	r4, [r2, r3]
  str r4, [r0, r3]
 8000350:	50c4      	str	r4, [r0, r3]
  adds r3, r3, #4
 8000352:	3304      	adds	r3, #4

08000354 <LoopCopyDataInit>:

LoopCopyDataInit:
  adds r4, r0, r3
 8000354:	18c4      	adds	r4, r0, r3
  cmp r4, r1
 8000356:	428c      	cmp	r4, r1
  bcc CopyDataInit
 8000358:	d3f9      	bcc.n	800034e <CopyDataInit>

/* Zero fill the bss segment. */
  ldr r2, =_sbss
 800035a:	4a0a      	ldr	r2, [pc, #40]	; (8000384 <LoopForever+0x12>)
  ldr r4, =_ebss
 800035c:	4c0a      	ldr	r4, [pc, #40]	; (8000388 <LoopForever+0x16>)
  movs r3, #0
 800035e:	2300      	movs	r3, #0
  b LoopFillZerobss
 8000360:	e001      	b.n	8000366 <LoopFillZerobss>

08000362 <FillZerobss>:

FillZerobss:
  str  r3, [r2]
 8000362:	6013      	str	r3, [r2, #0]
  adds r2, r2, #4
 8000364:	3204      	adds	r2, #4

08000366 <LoopFillZerobss>:

LoopFillZerobss:
  cmp r2, r4
 8000366:	42a2      	cmp	r2, r4
  bcc FillZerobss
 8000368:	d3fb      	bcc.n	8000362 <FillZerobss>

/* Call static constructors */
  bl __libc_init_array
 800036a:	f000 fc19 	bl	8000ba0 <__libc_init_array>
/* Call the application's entry point.*/
  bl main
 800036e:	f7ff ff47 	bl	8000200 <main>

08000372 <LoopForever>:

LoopForever:
  b LoopForever
 8000372:	e7fe      	b.n	8000372 <LoopForever>
  ldr   r0, =_estack
 8000374:	20020000 	.word	0x20020000
  ldr r0, =_sdata
 8000378:	20000000 	.word	0x20000000
  ldr r1, =_edata
 800037c:	20000000 	.word	0x20000000
  ldr r2, =_sidata
 8000380:	08000c24 	.word	0x08000c24
  ldr r2, =_sbss
 8000384:	20000000 	.word	0x20000000
  ldr r4, =_ebss
 8000388:	20000058 	.word	0x20000058

0800038c <ADC_IRQHandler>:
 * @retval : None
*/
  .section .text.Default_Handler,"ax",%progbits
Default_Handler:
Infinite_Loop:
  b Infinite_Loop
 800038c:	e7fe      	b.n	800038c <ADC_IRQHandler>

0800038e <NVIC_EnableInterrupt>:

};


void NVIC_EnableInterrupt(IRQNumber_TypeDef_t IRQNumber)
{
 800038e:	b480      	push	{r7}
 8000390:	b085      	sub	sp, #20
 8000392:	af00      	add	r7, sp, #0
 8000394:	4603      	mov	r3, r0
 8000396:	71fb      	strb	r3, [r7, #7]
	uint32_t tempValue = 0;
 8000398:	2300      	movs	r3, #0
 800039a:	60fb      	str	r3, [r7, #12]

	tempValue = *((IRQNumber >> 5U) + NVIC_ISER0);
 800039c:	79fb      	ldrb	r3, [r7, #7]
 800039e:	095b      	lsrs	r3, r3, #5
 80003a0:	b2db      	uxtb	r3, r3
 80003a2:	009b      	lsls	r3, r3, #2
 80003a4:	f103 4360 	add.w	r3, r3, #3758096384	; 0xe0000000
 80003a8:	f503 4361 	add.w	r3, r3, #57600	; 0xe100
 80003ac:	681b      	ldr	r3, [r3, #0]
 80003ae:	60fb      	str	r3, [r7, #12]
	tempValue &= ~(0x1U << (IRQNumber & 0x1FU));
 80003b0:	79fb      	ldrb	r3, [r7, #7]
 80003b2:	f003 031f 	and.w	r3, r3, #31
 80003b6:	2201      	movs	r2, #1
 80003b8:	fa02 f303 	lsl.w	r3, r2, r3
 80003bc:	43db      	mvns	r3, r3
 80003be:	68fa      	ldr	r2, [r7, #12]
 80003c0:	4013      	ands	r3, r2
 80003c2:	60fb      	str	r3, [r7, #12]
	tempValue |=  (0x1U << (IRQNumber & 0x1FU));
 80003c4:	79fb      	ldrb	r3, [r7, #7]
 80003c6:	f003 031f 	and.w	r3, r3, #31
 80003ca:	2201      	movs	r2, #1
 80003cc:	fa02 f303 	lsl.w	r3, r2, r3
 80003d0:	68fa      	ldr	r2, [r7, #12]
 80003d2:	4313      	orrs	r3, r2
 80003d4:	60fb      	str	r3, [r7, #12]
	*((IRQNumber >> 5U) + NVIC_ISER0) = tempValue;
 80003d6:	79fb      	ldrb	r3, [r7, #7]
 80003d8:	095b      	lsrs	r3, r3, #5
 80003da:	b2db      	uxtb	r3, r3
 80003dc:	009b      	lsls	r3, r3, #2
 80003de:	f103 4360 	add.w	r3, r3, #3758096384	; 0xe0000000
 80003e2:	f503 4361 	add.w	r3, r3, #57600	; 0xe100
 80003e6:	68fa      	ldr	r2, [r7, #12]
 80003e8:	601a      	str	r2, [r3, #0]
};
 80003ea:	bf00      	nop
 80003ec:	3714      	adds	r7, #20
 80003ee:	46bd      	mov	sp, r7
 80003f0:	bc80      	pop	{r7}
 80003f2:	4770      	bx	lr

080003f4 <GPIO_Init>:

#include "GPIO.h"

void GPIO_Init(GPIO_TypeDef_t *GPIOx, GPIO_InitTypeDef_t *GPIO_ConfigStruct)
{
 80003f4:	b480      	push	{r7}
 80003f6:	b089      	sub	sp, #36	; 0x24
 80003f8:	af00      	add	r7, sp, #0
 80003fa:	6078      	str	r0, [r7, #4]
 80003fc:	6039      	str	r1, [r7, #0]
	uint32_t position;
	uint32_t fakePosition = 0;
 80003fe:	2300      	movs	r3, #0
 8000400:	61bb      	str	r3, [r7, #24]
	uint32_t lastPosition = 0;
 8000402:	2300      	movs	r3, #0
 8000404:	617b      	str	r3, [r7, #20]

	for(position = 0; position <16; position++)
 8000406:	2300      	movs	r3, #0
 8000408:	61fb      	str	r3, [r7, #28]
 800040a:	e09f      	b.n	800054c <GPIO_Init+0x158>
	{
		fakePosition = (0x1 << position);
 800040c:	2201      	movs	r2, #1
 800040e:	69fb      	ldr	r3, [r7, #28]
 8000410:	fa02 f303 	lsl.w	r3, r2, r3
 8000414:	61bb      	str	r3, [r7, #24]
		lastPosition = (uint32_t)(GPIO_ConfigStruct->pinNumber) & fakePosition;
 8000416:	683b      	ldr	r3, [r7, #0]
 8000418:	681b      	ldr	r3, [r3, #0]
 800041a:	69ba      	ldr	r2, [r7, #24]
 800041c:	4013      	ands	r3, r2
 800041e:	617b      	str	r3, [r7, #20]

		if(fakePosition == lastPosition)
 8000420:	69ba      	ldr	r2, [r7, #24]
 8000422:	697b      	ldr	r3, [r7, #20]
 8000424:	429a      	cmp	r2, r3
 8000426:	f040 808e 	bne.w	8000546 <GPIO_Init+0x152>
		{
			/* Mode Confugiration */
			uint32_t tempValue = GPIOx->MODER;
 800042a:	687b      	ldr	r3, [r7, #4]
 800042c:	681b      	ldr	r3, [r3, #0]
 800042e:	613b      	str	r3, [r7, #16]

			tempValue &= ~(0x3U << (position*2));					//temizleme islemi
 8000430:	69fb      	ldr	r3, [r7, #28]
 8000432:	005b      	lsls	r3, r3, #1
 8000434:	2203      	movs	r2, #3
 8000436:	fa02 f303 	lsl.w	r3, r2, r3
 800043a:	43db      	mvns	r3, r3
 800043c:	693a      	ldr	r2, [r7, #16]
 800043e:	4013      	ands	r3, r2
 8000440:	613b      	str	r3, [r7, #16]
			tempValue |= (GPIO_ConfigStruct->Mode << (position*2));
 8000442:	683b      	ldr	r3, [r7, #0]
 8000444:	685a      	ldr	r2, [r3, #4]
 8000446:	69fb      	ldr	r3, [r7, #28]
 8000448:	005b      	lsls	r3, r3, #1
 800044a:	fa02 f303 	lsl.w	r3, r2, r3
 800044e:	693a      	ldr	r2, [r7, #16]
 8000450:	4313      	orrs	r3, r2
 8000452:	613b      	str	r3, [r7, #16]

			GPIOx->MODER = tempValue;
 8000454:	687b      	ldr	r3, [r7, #4]
 8000456:	693a      	ldr	r2, [r7, #16]
 8000458:	601a      	str	r2, [r3, #0]


			if(GPIO_ConfigStruct->Mode == GPIO_MODE_OUTPUT || GPIO_ConfigStruct->Mode == GPIO_MODE_AF)
 800045a:	683b      	ldr	r3, [r7, #0]
 800045c:	685b      	ldr	r3, [r3, #4]
 800045e:	2b01      	cmp	r3, #1
 8000460:	d003      	beq.n	800046a <GPIO_Init+0x76>
 8000462:	683b      	ldr	r3, [r7, #0]
 8000464:	685b      	ldr	r3, [r3, #4]
 8000466:	2b02      	cmp	r3, #2
 8000468:	d12d      	bne.n	80004c6 <GPIO_Init+0xd2>
			{
				/* Otype Confugiration */
				tempValue = GPIOx->OTYPER;
 800046a:	687b      	ldr	r3, [r7, #4]
 800046c:	685b      	ldr	r3, [r3, #4]
 800046e:	613b      	str	r3, [r7, #16]

				tempValue &= ~(0x1U << (position));
 8000470:	2201      	movs	r2, #1
 8000472:	69fb      	ldr	r3, [r7, #28]
 8000474:	fa02 f303 	lsl.w	r3, r2, r3
 8000478:	43db      	mvns	r3, r3
 800047a:	693a      	ldr	r2, [r7, #16]
 800047c:	4013      	ands	r3, r2
 800047e:	613b      	str	r3, [r7, #16]
				tempValue |= (GPIO_ConfigStruct->Otype << (position));
 8000480:	683b      	ldr	r3, [r7, #0]
 8000482:	689a      	ldr	r2, [r3, #8]
 8000484:	69fb      	ldr	r3, [r7, #28]
 8000486:	fa02 f303 	lsl.w	r3, r2, r3
 800048a:	693a      	ldr	r2, [r7, #16]
 800048c:	4313      	orrs	r3, r2
 800048e:	613b      	str	r3, [r7, #16]

				GPIOx->OTYPER = tempValue;
 8000490:	687b      	ldr	r3, [r7, #4]
 8000492:	693a      	ldr	r2, [r7, #16]
 8000494:	605a      	str	r2, [r3, #4]

				/* Ospeed Configuration*/
				tempValue = GPIOx->OSPEEDR;
 8000496:	687b      	ldr	r3, [r7, #4]
 8000498:	689b      	ldr	r3, [r3, #8]
 800049a:	613b      	str	r3, [r7, #16]

				tempValue &= ~(0x3U << (position * 2));
 800049c:	69fb      	ldr	r3, [r7, #28]
 800049e:	005b      	lsls	r3, r3, #1
 80004a0:	2203      	movs	r2, #3
 80004a2:	fa02 f303 	lsl.w	r3, r2, r3
 80004a6:	43db      	mvns	r3, r3
 80004a8:	693a      	ldr	r2, [r7, #16]
 80004aa:	4013      	ands	r3, r2
 80004ac:	613b      	str	r3, [r7, #16]
				tempValue |= (GPIO_ConfigStruct->Speed << (position * 2));
 80004ae:	683b      	ldr	r3, [r7, #0]
 80004b0:	691a      	ldr	r2, [r3, #16]
 80004b2:	69fb      	ldr	r3, [r7, #28]
 80004b4:	005b      	lsls	r3, r3, #1
 80004b6:	fa02 f303 	lsl.w	r3, r2, r3
 80004ba:	693a      	ldr	r2, [r7, #16]
 80004bc:	4313      	orrs	r3, r2
 80004be:	613b      	str	r3, [r7, #16]

				GPIOx->OSPEEDR = tempValue;
 80004c0:	687b      	ldr	r3, [r7, #4]
 80004c2:	693a      	ldr	r2, [r7, #16]
 80004c4:	609a      	str	r2, [r3, #8]

			}
			/* Push Pull Configuration*/
			tempValue = GPIOx->PUPDR;
 80004c6:	687b      	ldr	r3, [r7, #4]
 80004c8:	68db      	ldr	r3, [r3, #12]
 80004ca:	613b      	str	r3, [r7, #16]

			tempValue &= ~(0x3U << (position * 2));
 80004cc:	69fb      	ldr	r3, [r7, #28]
 80004ce:	005b      	lsls	r3, r3, #1
 80004d0:	2203      	movs	r2, #3
 80004d2:	fa02 f303 	lsl.w	r3, r2, r3
 80004d6:	43db      	mvns	r3, r3
 80004d8:	693a      	ldr	r2, [r7, #16]
 80004da:	4013      	ands	r3, r2
 80004dc:	613b      	str	r3, [r7, #16]
			tempValue |= (GPIO_ConfigStruct->PuPd << (position * 2));
 80004de:	683b      	ldr	r3, [r7, #0]
 80004e0:	68da      	ldr	r2, [r3, #12]
 80004e2:	69fb      	ldr	r3, [r7, #28]
 80004e4:	005b      	lsls	r3, r3, #1
 80004e6:	fa02 f303 	lsl.w	r3, r2, r3
 80004ea:	693a      	ldr	r2, [r7, #16]
 80004ec:	4313      	orrs	r3, r2
 80004ee:	613b      	str	r3, [r7, #16]


			GPIOx->PUPDR = tempValue;
 80004f0:	687b      	ldr	r3, [r7, #4]
 80004f2:	693a      	ldr	r2, [r7, #16]
 80004f4:	60da      	str	r2, [r3, #12]
			if (GPIO_ConfigStruct->Mode == GPIO_MODE_AF)
 80004f6:	683b      	ldr	r3, [r7, #0]
 80004f8:	685b      	ldr	r3, [r3, #4]
 80004fa:	2b02      	cmp	r3, #2
 80004fc:	d123      	bne.n	8000546 <GPIO_Init+0x152>
			{
				uint32_t tempValue;
				tempValue = GPIOx->AFR[position >> 3U];
 80004fe:	69fb      	ldr	r3, [r7, #28]
 8000500:	08da      	lsrs	r2, r3, #3
 8000502:	687b      	ldr	r3, [r7, #4]
 8000504:	3208      	adds	r2, #8
 8000506:	f853 3022 	ldr.w	r3, [r3, r2, lsl #2]
 800050a:	60fb      	str	r3, [r7, #12]
				tempValue &= ~(0xFU << ((position & 0x7U) * 4));
 800050c:	69fb      	ldr	r3, [r7, #28]
 800050e:	f003 0307 	and.w	r3, r3, #7
 8000512:	009b      	lsls	r3, r3, #2
 8000514:	220f      	movs	r2, #15
 8000516:	fa02 f303 	lsl.w	r3, r2, r3
 800051a:	43db      	mvns	r3, r3
 800051c:	68fa      	ldr	r2, [r7, #12]
 800051e:	4013      	ands	r3, r2
 8000520:	60fb      	str	r3, [r7, #12]
				tempValue |= (GPIO_ConfigStruct->Alternate << ((position & 0x7U) * 4));
 8000522:	683b      	ldr	r3, [r7, #0]
 8000524:	695a      	ldr	r2, [r3, #20]
 8000526:	69fb      	ldr	r3, [r7, #28]
 8000528:	f003 0307 	and.w	r3, r3, #7
 800052c:	009b      	lsls	r3, r3, #2
 800052e:	fa02 f303 	lsl.w	r3, r2, r3
 8000532:	68fa      	ldr	r2, [r7, #12]
 8000534:	4313      	orrs	r3, r2
 8000536:	60fb      	str	r3, [r7, #12]
				GPIOx->AFR[position >> 3U] = tempValue;
 8000538:	69fb      	ldr	r3, [r7, #28]
 800053a:	08da      	lsrs	r2, r3, #3
 800053c:	687b      	ldr	r3, [r7, #4]
 800053e:	3208      	adds	r2, #8
 8000540:	68f9      	ldr	r1, [r7, #12]
 8000542:	f843 1022 	str.w	r1, [r3, r2, lsl #2]
	for(position = 0; position <16; position++)
 8000546:	69fb      	ldr	r3, [r7, #28]
 8000548:	3301      	adds	r3, #1
 800054a:	61fb      	str	r3, [r7, #28]
 800054c:	69fb      	ldr	r3, [r7, #28]
 800054e:	2b0f      	cmp	r3, #15
 8000550:	f67f af5c 	bls.w	800040c <GPIO_Init+0x18>
			}
		}

	}
};
 8000554:	bf00      	nop
 8000556:	bf00      	nop
 8000558:	3724      	adds	r7, #36	; 0x24
 800055a:	46bd      	mov	sp, r7
 800055c:	bc80      	pop	{r7}
 800055e:	4770      	bx	lr

08000560 <RCC_GetSystemClock>:
const uint8_t AHB_Prescaler[] = {0, 0, 0, 0, 0, 0, 0, 0, 1, 2, 3, 4, 5, 6, 7, 8, 9};
const uint8_t APB_Prescaler[] = {0, 0, 0, 0, 1, 2, 3, 4};


uint32_t RCC_GetSystemClock(void)
{
 8000560:	b480      	push	{r7}
 8000562:	b083      	sub	sp, #12
 8000564:	af00      	add	r7, sp, #0

	uint32_t SystemCoreClock = 0;
 8000566:	2300      	movs	r3, #0
 8000568:	607b      	str	r3, [r7, #4]
	uint8_t clkSource = 0;
 800056a:	2300      	movs	r3, #0
 800056c:	70fb      	strb	r3, [r7, #3]

	clkSource = ( (RCC->CFGR >> 2U) & 0x3U );
 800056e:	4b0d      	ldr	r3, [pc, #52]	; (80005a4 <RCC_GetSystemClock+0x44>)
 8000570:	689b      	ldr	r3, [r3, #8]
 8000572:	089b      	lsrs	r3, r3, #2
 8000574:	b2db      	uxtb	r3, r3
 8000576:	f003 0303 	and.w	r3, r3, #3
 800057a:	70fb      	strb	r3, [r7, #3]

	switch(clkSource)
 800057c:	78fb      	ldrb	r3, [r7, #3]
 800057e:	2b00      	cmp	r3, #0
 8000580:	d002      	beq.n	8000588 <RCC_GetSystemClock+0x28>
 8000582:	2b01      	cmp	r3, #1
 8000584:	d003      	beq.n	800058e <RCC_GetSystemClock+0x2e>
 8000586:	e005      	b.n	8000594 <RCC_GetSystemClock+0x34>
	{
		case 0 :  SystemCoreClock = 16000000; break;
 8000588:	4b07      	ldr	r3, [pc, #28]	; (80005a8 <RCC_GetSystemClock+0x48>)
 800058a:	607b      	str	r3, [r7, #4]
 800058c:	e004      	b.n	8000598 <RCC_GetSystemClock+0x38>
		case 1 :  SystemCoreClock =  8000000; break;
 800058e:	4b07      	ldr	r3, [pc, #28]	; (80005ac <RCC_GetSystemClock+0x4c>)
 8000590:	607b      	str	r3, [r7, #4]
 8000592:	e001      	b.n	8000598 <RCC_GetSystemClock+0x38>

		default : SystemCoreClock = 16000000;
 8000594:	4b04      	ldr	r3, [pc, #16]	; (80005a8 <RCC_GetSystemClock+0x48>)
 8000596:	607b      	str	r3, [r7, #4]
	}
	return SystemCoreClock;
 8000598:	687b      	ldr	r3, [r7, #4]
}
 800059a:	4618      	mov	r0, r3
 800059c:	370c      	adds	r7, #12
 800059e:	46bd      	mov	sp, r7
 80005a0:	bc80      	pop	{r7}
 80005a2:	4770      	bx	lr
 80005a4:	40023800 	.word	0x40023800
 80005a8:	00f42400 	.word	0x00f42400
 80005ac:	007a1200 	.word	0x007a1200

080005b0 <RCC_GetHClock>:


uint32_t RCC_GetHClock(void)
{
 80005b0:	b580      	push	{r7, lr}
 80005b2:	b084      	sub	sp, #16
 80005b4:	af00      	add	r7, sp, #0
	uint32_t AHB_PeriphClock = 0;
 80005b6:	2300      	movs	r3, #0
 80005b8:	60fb      	str	r3, [r7, #12]
	uint32_t SystemCoreClock = 0;
 80005ba:	2300      	movs	r3, #0
 80005bc:	60bb      	str	r3, [r7, #8]
	uint8_t HPRE_Value = 0;
 80005be:	2300      	movs	r3, #0
 80005c0:	71fb      	strb	r3, [r7, #7]
	uint8_t tempValue = 0;
 80005c2:	2300      	movs	r3, #0
 80005c4:	71bb      	strb	r3, [r7, #6]


	SystemCoreClock = RCC_GetSystemClock();
 80005c6:	f7ff ffcb 	bl	8000560 <RCC_GetSystemClock>
 80005ca:	60b8      	str	r0, [r7, #8]

	HPRE_Value =((RCC->CFGR >> 4U) & 0xFU);
 80005cc:	4b0a      	ldr	r3, [pc, #40]	; (80005f8 <RCC_GetHClock+0x48>)
 80005ce:	689b      	ldr	r3, [r3, #8]
 80005d0:	091b      	lsrs	r3, r3, #4
 80005d2:	b2db      	uxtb	r3, r3
 80005d4:	f003 030f 	and.w	r3, r3, #15
 80005d8:	71fb      	strb	r3, [r7, #7]
	tempValue = AHB_Prescaler[HPRE_Value];
 80005da:	79fb      	ldrb	r3, [r7, #7]
 80005dc:	4a07      	ldr	r2, [pc, #28]	; (80005fc <RCC_GetHClock+0x4c>)
 80005de:	5cd3      	ldrb	r3, [r2, r3]
 80005e0:	71bb      	strb	r3, [r7, #6]
	AHB_PeriphClock = (SystemCoreClock >> tempValue);
 80005e2:	79bb      	ldrb	r3, [r7, #6]
 80005e4:	68ba      	ldr	r2, [r7, #8]
 80005e6:	fa22 f303 	lsr.w	r3, r2, r3
 80005ea:	60fb      	str	r3, [r7, #12]

	return AHB_PeriphClock;
 80005ec:	68fb      	ldr	r3, [r7, #12]

}
 80005ee:	4618      	mov	r0, r3
 80005f0:	3710      	adds	r7, #16
 80005f2:	46bd      	mov	sp, r7
 80005f4:	bd80      	pop	{r7, pc}
 80005f6:	bf00      	nop
 80005f8:	40023800 	.word	0x40023800
 80005fc:	08000c00 	.word	0x08000c00

08000600 <RCC_GetPClock1>:

uint32_t RCC_GetPClock1(void)
{
 8000600:	b580      	push	{r7, lr}
 8000602:	b084      	sub	sp, #16
 8000604:	af00      	add	r7, sp, #0
	uint32_t APB1_PeriphClock = 0;
 8000606:	2300      	movs	r3, #0
 8000608:	60fb      	str	r3, [r7, #12]
	uint32_t Hclock = 0;
 800060a:	2300      	movs	r3, #0
 800060c:	60bb      	str	r3, [r7, #8]
	uint8_t HPRE1_Value = 0;
 800060e:	2300      	movs	r3, #0
 8000610:	71fb      	strb	r3, [r7, #7]
	uint8_t tempValue = 0;
 8000612:	2300      	movs	r3, #0
 8000614:	71bb      	strb	r3, [r7, #6]

	Hclock = RCC_GetHClock();
 8000616:	f7ff ffcb 	bl	80005b0 <RCC_GetHClock>
 800061a:	60b8      	str	r0, [r7, #8]

	HPRE1_Value = ((RCC->CFGR >> 10U) & 0x7U);
 800061c:	4b0a      	ldr	r3, [pc, #40]	; (8000648 <RCC_GetPClock1+0x48>)
 800061e:	689b      	ldr	r3, [r3, #8]
 8000620:	0a9b      	lsrs	r3, r3, #10
 8000622:	b2db      	uxtb	r3, r3
 8000624:	f003 0307 	and.w	r3, r3, #7
 8000628:	71fb      	strb	r3, [r7, #7]
	tempValue = APB_Prescaler[HPRE1_Value];
 800062a:	79fb      	ldrb	r3, [r7, #7]
 800062c:	4a07      	ldr	r2, [pc, #28]	; (800064c <RCC_GetPClock1+0x4c>)
 800062e:	5cd3      	ldrb	r3, [r2, r3]
 8000630:	71bb      	strb	r3, [r7, #6]
	APB1_PeriphClock = ( Hclock >> tempValue);
 8000632:	79bb      	ldrb	r3, [r7, #6]
 8000634:	68ba      	ldr	r2, [r7, #8]
 8000636:	fa22 f303 	lsr.w	r3, r2, r3
 800063a:	60fb      	str	r3, [r7, #12]

	return APB1_PeriphClock;
 800063c:	68fb      	ldr	r3, [r7, #12]
}
 800063e:	4618      	mov	r0, r3
 8000640:	3710      	adds	r7, #16
 8000642:	46bd      	mov	sp, r7
 8000644:	bd80      	pop	{r7, pc}
 8000646:	bf00      	nop
 8000648:	40023800 	.word	0x40023800
 800064c:	08000c14 	.word	0x08000c14

08000650 <RCC_GetPClock2>:


uint32_t RCC_GetPClock2(void)
{
 8000650:	b580      	push	{r7, lr}
 8000652:	b084      	sub	sp, #16
 8000654:	af00      	add	r7, sp, #0
	uint32_t APB2_PeriphClock = 0;
 8000656:	2300      	movs	r3, #0
 8000658:	60fb      	str	r3, [r7, #12]
	uint32_t Hclock = 0;
 800065a:	2300      	movs	r3, #0
 800065c:	60bb      	str	r3, [r7, #8]
	uint8_t HPRE2_Value = 0;
 800065e:	2300      	movs	r3, #0
 8000660:	71fb      	strb	r3, [r7, #7]
	uint8_t tempValue = 0;
 8000662:	2300      	movs	r3, #0
 8000664:	71bb      	strb	r3, [r7, #6]

	Hclock = RCC_GetHClock();
 8000666:	f7ff ffa3 	bl	80005b0 <RCC_GetHClock>
 800066a:	60b8      	str	r0, [r7, #8]

	HPRE2_Value = ((RCC->CFGR >> 13U) & 0x7U);
 800066c:	4b0a      	ldr	r3, [pc, #40]	; (8000698 <RCC_GetPClock2+0x48>)
 800066e:	689b      	ldr	r3, [r3, #8]
 8000670:	0b5b      	lsrs	r3, r3, #13
 8000672:	b2db      	uxtb	r3, r3
 8000674:	f003 0307 	and.w	r3, r3, #7
 8000678:	71fb      	strb	r3, [r7, #7]
	tempValue = APB_Prescaler[HPRE2_Value];
 800067a:	79fb      	ldrb	r3, [r7, #7]
 800067c:	4a07      	ldr	r2, [pc, #28]	; (800069c <RCC_GetPClock2+0x4c>)
 800067e:	5cd3      	ldrb	r3, [r2, r3]
 8000680:	71bb      	strb	r3, [r7, #6]
	APB2_PeriphClock = ( Hclock >> tempValue);
 8000682:	79bb      	ldrb	r3, [r7, #6]
 8000684:	68ba      	ldr	r2, [r7, #8]
 8000686:	fa22 f303 	lsr.w	r3, r2, r3
 800068a:	60fb      	str	r3, [r7, #12]

	return APB2_PeriphClock;
 800068c:	68fb      	ldr	r3, [r7, #12]
}
 800068e:	4618      	mov	r0, r3
 8000690:	3710      	adds	r7, #16
 8000692:	46bd      	mov	sp, r7
 8000694:	bd80      	pop	{r7, pc}
 8000696:	bf00      	nop
 8000698:	40023800 	.word	0x40023800
 800069c:	08000c14 	.word	0x08000c14

080006a0 <closeUSART_Tx_ISR>:

#include "USART.h"

static void closeUSART_Tx_ISR(USART_HandleTypedef_t *USART_Handle)
{
 80006a0:	b480      	push	{r7}
 80006a2:	b083      	sub	sp, #12
 80006a4:	af00      	add	r7, sp, #0
 80006a6:	6078      	str	r0, [r7, #4]
	USART_Handle->Instance->CR1 &= ~(0x1U << USART_CR1_TxEIE);
 80006a8:	687b      	ldr	r3, [r7, #4]
 80006aa:	681b      	ldr	r3, [r3, #0]
 80006ac:	68da      	ldr	r2, [r3, #12]
 80006ae:	687b      	ldr	r3, [r7, #4]
 80006b0:	681b      	ldr	r3, [r3, #0]
 80006b2:	f022 0280 	bic.w	r2, r2, #128	; 0x80
 80006b6:	60da      	str	r2, [r3, #12]
	USART_Handle->TxBufferSize = 0;
 80006b8:	687b      	ldr	r3, [r7, #4]
 80006ba:	2200      	movs	r2, #0
 80006bc:	849a      	strh	r2, [r3, #36]	; 0x24
	USART_Handle->pTxBuffer = NULL;
 80006be:	687b      	ldr	r3, [r7, #4]
 80006c0:	2200      	movs	r2, #0
 80006c2:	621a      	str	r2, [r3, #32]
	USART_Handle->TxStatus = USART_BUS_FREE;
 80006c4:	687b      	ldr	r3, [r7, #4]
 80006c6:	2200      	movs	r2, #0
 80006c8:	f883 2026 	strb.w	r2, [r3, #38]	; 0x26
}
 80006cc:	bf00      	nop
 80006ce:	370c      	adds	r7, #12
 80006d0:	46bd      	mov	sp, r7
 80006d2:	bc80      	pop	{r7}
 80006d4:	4770      	bx	lr

080006d6 <closeUSART_Rx_ISR>:

static void closeUSART_Rx_ISR(USART_HandleTypedef_t *USART_Handle)
{
 80006d6:	b480      	push	{r7}
 80006d8:	b083      	sub	sp, #12
 80006da:	af00      	add	r7, sp, #0
 80006dc:	6078      	str	r0, [r7, #4]
	USART_Handle->Instance->CR1 &= ~(0x1U << USART_CR1_RXNEIE);
 80006de:	687b      	ldr	r3, [r7, #4]
 80006e0:	681b      	ldr	r3, [r3, #0]
 80006e2:	68da      	ldr	r2, [r3, #12]
 80006e4:	687b      	ldr	r3, [r7, #4]
 80006e6:	681b      	ldr	r3, [r3, #0]
 80006e8:	f022 0220 	bic.w	r2, r2, #32
 80006ec:	60da      	str	r2, [r3, #12]
	USART_Handle->RxBufferSize = 0;
 80006ee:	687b      	ldr	r3, [r7, #4]
 80006f0:	2200      	movs	r2, #0
 80006f2:	861a      	strh	r2, [r3, #48]	; 0x30
	USART_Handle->pRxBuffer = NULL;
 80006f4:	687b      	ldr	r3, [r7, #4]
 80006f6:	2200      	movs	r2, #0
 80006f8:	62da      	str	r2, [r3, #44]	; 0x2c
	USART_Handle->RxStatus = USART_BUS_FREE;
 80006fa:	687b      	ldr	r3, [r7, #4]
 80006fc:	2200      	movs	r2, #0
 80006fe:	f883 2032 	strb.w	r2, [r3, #50]	; 0x32
}
 8000702:	bf00      	nop
 8000704:	370c      	adds	r7, #12
 8000706:	46bd      	mov	sp, r7
 8000708:	bc80      	pop	{r7}
 800070a:	4770      	bx	lr

0800070c <USART_SendWith_IT>:

static void USART_SendWith_IT(USART_HandleTypedef_t *USART_Handle)
{
 800070c:	b580      	push	{r7, lr}
 800070e:	b084      	sub	sp, #16
 8000710:	af00      	add	r7, sp, #0
 8000712:	6078      	str	r0, [r7, #4]
	if((USART_Handle->Init.WordLength == USART_WORDLENGTH_9Bits) && (USART_Handle->Init.Parity == USART_PARITY_NONE))
 8000714:	687b      	ldr	r3, [r7, #4]
 8000716:	68db      	ldr	r3, [r3, #12]
 8000718:	f5b3 5f80 	cmp.w	r3, #4096	; 0x1000
 800071c:	d11d      	bne.n	800075a <USART_SendWith_IT+0x4e>
 800071e:	687b      	ldr	r3, [r7, #4]
 8000720:	691b      	ldr	r3, [r3, #16]
 8000722:	2b00      	cmp	r3, #0
 8000724:	d119      	bne.n	800075a <USART_SendWith_IT+0x4e>
	{
		uint16_t* p16BitsData = (uint16_t*)(USART_Handle->pTxBuffer);
 8000726:	687b      	ldr	r3, [r7, #4]
 8000728:	6a1b      	ldr	r3, [r3, #32]
 800072a:	60fb      	str	r3, [r7, #12]

		USART_Handle->Instance->DR = (uint16_t)(*p16BitsData & (0x01FFU));
 800072c:	68fb      	ldr	r3, [r7, #12]
 800072e:	881b      	ldrh	r3, [r3, #0]
 8000730:	461a      	mov	r2, r3
 8000732:	687b      	ldr	r3, [r7, #4]
 8000734:	681b      	ldr	r3, [r3, #0]
 8000736:	f3c2 0208 	ubfx	r2, r2, #0, #9
 800073a:	605a      	str	r2, [r3, #4]
		USART_Handle->pTxBuffer += sizeof(uint16_t);
 800073c:	687b      	ldr	r3, [r7, #4]
 800073e:	6a1b      	ldr	r3, [r3, #32]
 8000740:	1c9a      	adds	r2, r3, #2
 8000742:	687b      	ldr	r3, [r7, #4]
 8000744:	621a      	str	r2, [r3, #32]
		USART_Handle->TxBufferSize -= 2;
 8000746:	687b      	ldr	r3, [r7, #4]
 8000748:	f9b3 3024 	ldrsh.w	r3, [r3, #36]	; 0x24
 800074c:	b29b      	uxth	r3, r3
 800074e:	3b02      	subs	r3, #2
 8000750:	b29b      	uxth	r3, r3
 8000752:	b21a      	sxth	r2, r3
 8000754:	687b      	ldr	r3, [r7, #4]
 8000756:	849a      	strh	r2, [r3, #36]	; 0x24
	{
 8000758:	e013      	b.n	8000782 <USART_SendWith_IT+0x76>
	}
	else
	{
		USART_Handle->Instance->DR = (uint8_t)(*(USART_Handle->pTxBuffer) & (0x00FFU));
 800075a:	687b      	ldr	r3, [r7, #4]
 800075c:	6a1b      	ldr	r3, [r3, #32]
 800075e:	781a      	ldrb	r2, [r3, #0]
 8000760:	687b      	ldr	r3, [r7, #4]
 8000762:	681b      	ldr	r3, [r3, #0]
 8000764:	605a      	str	r2, [r3, #4]
		USART_Handle->pTxBuffer ++;
 8000766:	687b      	ldr	r3, [r7, #4]
 8000768:	6a1b      	ldr	r3, [r3, #32]
 800076a:	1c5a      	adds	r2, r3, #1
 800076c:	687b      	ldr	r3, [r7, #4]
 800076e:	621a      	str	r2, [r3, #32]
		USART_Handle->TxBufferSize --;
 8000770:	687b      	ldr	r3, [r7, #4]
 8000772:	f9b3 3024 	ldrsh.w	r3, [r3, #36]	; 0x24
 8000776:	b29b      	uxth	r3, r3
 8000778:	3b01      	subs	r3, #1
 800077a:	b29b      	uxth	r3, r3
 800077c:	b21a      	sxth	r2, r3
 800077e:	687b      	ldr	r3, [r7, #4]
 8000780:	849a      	strh	r2, [r3, #36]	; 0x24
	}
	if(USART_Handle->TxBufferSize == 0)
 8000782:	687b      	ldr	r3, [r7, #4]
 8000784:	f9b3 3024 	ldrsh.w	r3, [r3, #36]	; 0x24
 8000788:	2b00      	cmp	r3, #0
 800078a:	d102      	bne.n	8000792 <USART_SendWith_IT+0x86>
	{
		closeUSART_Tx_ISR(USART_Handle);
 800078c:	6878      	ldr	r0, [r7, #4]
 800078e:	f7ff ff87 	bl	80006a0 <closeUSART_Tx_ISR>
	}
}
 8000792:	bf00      	nop
 8000794:	3710      	adds	r7, #16
 8000796:	46bd      	mov	sp, r7
 8000798:	bd80      	pop	{r7, pc}

0800079a <USART_ReceiveWith_IT>:

static void USART_ReceiveWith_IT(USART_HandleTypedef_t *USART_Handle)
{
 800079a:	b580      	push	{r7, lr}
 800079c:	b084      	sub	sp, #16
 800079e:	af00      	add	r7, sp, #0
 80007a0:	6078      	str	r0, [r7, #4]
	uint16_t* p16BitsBuffer;
	uint8_t* p8BitsBuffer;

	if((USART_Handle->Init.WordLength == USART_WORDLENGTH_9Bits) && (USART_Handle->Init.Parity == USART_PARITY_NONE))
 80007a2:	687b      	ldr	r3, [r7, #4]
 80007a4:	68db      	ldr	r3, [r3, #12]
 80007a6:	f5b3 5f80 	cmp.w	r3, #4096	; 0x1000
 80007aa:	d109      	bne.n	80007c0 <USART_ReceiveWith_IT+0x26>
 80007ac:	687b      	ldr	r3, [r7, #4]
 80007ae:	691b      	ldr	r3, [r3, #16]
 80007b0:	2b00      	cmp	r3, #0
 80007b2:	d105      	bne.n	80007c0 <USART_ReceiveWith_IT+0x26>
	{
		p16BitsBuffer = (uint16_t*)(USART_Handle->pRxBuffer);
 80007b4:	687b      	ldr	r3, [r7, #4]
 80007b6:	6adb      	ldr	r3, [r3, #44]	; 0x2c
 80007b8:	60fb      	str	r3, [r7, #12]
		p8BitsBuffer = NULL;
 80007ba:	2300      	movs	r3, #0
 80007bc:	60bb      	str	r3, [r7, #8]
 80007be:	e004      	b.n	80007ca <USART_ReceiveWith_IT+0x30>
	}
	else
	{
		p8BitsBuffer = (uint8_t*)(USART_Handle->pRxBuffer);
 80007c0:	687b      	ldr	r3, [r7, #4]
 80007c2:	6adb      	ldr	r3, [r3, #44]	; 0x2c
 80007c4:	60bb      	str	r3, [r7, #8]
		p16BitsBuffer = NULL;
 80007c6:	2300      	movs	r3, #0
 80007c8:	60fb      	str	r3, [r7, #12]
	}


	if(p8BitsBuffer == NULL)
 80007ca:	68bb      	ldr	r3, [r7, #8]
 80007cc:	2b00      	cmp	r3, #0
 80007ce:	d117      	bne.n	8000800 <USART_ReceiveWith_IT+0x66>
	{
		*p16BitsBuffer = (uint16_t)(USART_Handle->Instance->DR & (0x01FFU));
 80007d0:	687b      	ldr	r3, [r7, #4]
 80007d2:	681b      	ldr	r3, [r3, #0]
 80007d4:	685b      	ldr	r3, [r3, #4]
 80007d6:	b29b      	uxth	r3, r3
 80007d8:	f3c3 0308 	ubfx	r3, r3, #0, #9
 80007dc:	b29a      	uxth	r2, r3
 80007de:	68fb      	ldr	r3, [r7, #12]
 80007e0:	801a      	strh	r2, [r3, #0]
		USART_Handle->pRxBuffer += sizeof(uint16_t);
 80007e2:	687b      	ldr	r3, [r7, #4]
 80007e4:	6adb      	ldr	r3, [r3, #44]	; 0x2c
 80007e6:	1c9a      	adds	r2, r3, #2
 80007e8:	687b      	ldr	r3, [r7, #4]
 80007ea:	62da      	str	r2, [r3, #44]	; 0x2c
		USART_Handle->RxBufferSize -= 2;
 80007ec:	687b      	ldr	r3, [r7, #4]
 80007ee:	f9b3 3030 	ldrsh.w	r3, [r3, #48]	; 0x30
 80007f2:	b29b      	uxth	r3, r3
 80007f4:	3b02      	subs	r3, #2
 80007f6:	b29b      	uxth	r3, r3
 80007f8:	b21a      	sxth	r2, r3
 80007fa:	687b      	ldr	r3, [r7, #4]
 80007fc:	861a      	strh	r2, [r3, #48]	; 0x30
 80007fe:	e051      	b.n	80008a4 <USART_ReceiveWith_IT+0x10a>
	}
	else
	{
		if((USART_Handle->Init.WordLength == USART_WORDLENGTH_9Bits) && (USART_Handle->Init.Parity != USART_PARITY_NONE))
 8000800:	687b      	ldr	r3, [r7, #4]
 8000802:	68db      	ldr	r3, [r3, #12]
 8000804:	f5b3 5f80 	cmp.w	r3, #4096	; 0x1000
 8000808:	d118      	bne.n	800083c <USART_ReceiveWith_IT+0xa2>
 800080a:	687b      	ldr	r3, [r7, #4]
 800080c:	691b      	ldr	r3, [r3, #16]
 800080e:	2b00      	cmp	r3, #0
 8000810:	d014      	beq.n	800083c <USART_ReceiveWith_IT+0xa2>
		{
			*p8BitsBuffer = (uint8_t)(USART_Handle->Instance->DR & 0x00FFU);
 8000812:	687b      	ldr	r3, [r7, #4]
 8000814:	681b      	ldr	r3, [r3, #0]
 8000816:	685b      	ldr	r3, [r3, #4]
 8000818:	b2da      	uxtb	r2, r3
 800081a:	68bb      	ldr	r3, [r7, #8]
 800081c:	701a      	strb	r2, [r3, #0]
			USART_Handle->pRxBuffer++;
 800081e:	687b      	ldr	r3, [r7, #4]
 8000820:	6adb      	ldr	r3, [r3, #44]	; 0x2c
 8000822:	1c5a      	adds	r2, r3, #1
 8000824:	687b      	ldr	r3, [r7, #4]
 8000826:	62da      	str	r2, [r3, #44]	; 0x2c
			USART_Handle->RxBufferSize--;
 8000828:	687b      	ldr	r3, [r7, #4]
 800082a:	f9b3 3030 	ldrsh.w	r3, [r3, #48]	; 0x30
 800082e:	b29b      	uxth	r3, r3
 8000830:	3b01      	subs	r3, #1
 8000832:	b29b      	uxth	r3, r3
 8000834:	b21a      	sxth	r2, r3
 8000836:	687b      	ldr	r3, [r7, #4]
 8000838:	861a      	strh	r2, [r3, #48]	; 0x30
 800083a:	e033      	b.n	80008a4 <USART_ReceiveWith_IT+0x10a>
		}
		else if((USART_Handle->Init.WordLength == USART_WORDLENGTH_8Bits) && (USART_Handle->Init.Parity == USART_PARITY_NONE))
 800083c:	687b      	ldr	r3, [r7, #4]
 800083e:	68db      	ldr	r3, [r3, #12]
 8000840:	2b00      	cmp	r3, #0
 8000842:	d118      	bne.n	8000876 <USART_ReceiveWith_IT+0xdc>
 8000844:	687b      	ldr	r3, [r7, #4]
 8000846:	691b      	ldr	r3, [r3, #16]
 8000848:	2b00      	cmp	r3, #0
 800084a:	d114      	bne.n	8000876 <USART_ReceiveWith_IT+0xdc>
		{
			*p8BitsBuffer = (uint8_t)(USART_Handle->Instance->DR & 0x00FFU);
 800084c:	687b      	ldr	r3, [r7, #4]
 800084e:	681b      	ldr	r3, [r3, #0]
 8000850:	685b      	ldr	r3, [r3, #4]
 8000852:	b2da      	uxtb	r2, r3
 8000854:	68bb      	ldr	r3, [r7, #8]
 8000856:	701a      	strb	r2, [r3, #0]
			USART_Handle->pRxBuffer++;
 8000858:	687b      	ldr	r3, [r7, #4]
 800085a:	6adb      	ldr	r3, [r3, #44]	; 0x2c
 800085c:	1c5a      	adds	r2, r3, #1
 800085e:	687b      	ldr	r3, [r7, #4]
 8000860:	62da      	str	r2, [r3, #44]	; 0x2c
			USART_Handle->RxBufferSize--;
 8000862:	687b      	ldr	r3, [r7, #4]
 8000864:	f9b3 3030 	ldrsh.w	r3, [r3, #48]	; 0x30
 8000868:	b29b      	uxth	r3, r3
 800086a:	3b01      	subs	r3, #1
 800086c:	b29b      	uxth	r3, r3
 800086e:	b21a      	sxth	r2, r3
 8000870:	687b      	ldr	r3, [r7, #4]
 8000872:	861a      	strh	r2, [r3, #48]	; 0x30
 8000874:	e016      	b.n	80008a4 <USART_ReceiveWith_IT+0x10a>
		}
		else
		{
			*p8BitsBuffer = (uint8_t)(USART_Handle->Instance->DR & 0x007FU);
 8000876:	687b      	ldr	r3, [r7, #4]
 8000878:	681b      	ldr	r3, [r3, #0]
 800087a:	685b      	ldr	r3, [r3, #4]
 800087c:	b2db      	uxtb	r3, r3
 800087e:	f003 037f 	and.w	r3, r3, #127	; 0x7f
 8000882:	b2da      	uxtb	r2, r3
 8000884:	68bb      	ldr	r3, [r7, #8]
 8000886:	701a      	strb	r2, [r3, #0]
			USART_Handle->pRxBuffer++;
 8000888:	687b      	ldr	r3, [r7, #4]
 800088a:	6adb      	ldr	r3, [r3, #44]	; 0x2c
 800088c:	1c5a      	adds	r2, r3, #1
 800088e:	687b      	ldr	r3, [r7, #4]
 8000890:	62da      	str	r2, [r3, #44]	; 0x2c
			USART_Handle->RxBufferSize--;
 8000892:	687b      	ldr	r3, [r7, #4]
 8000894:	f9b3 3030 	ldrsh.w	r3, [r3, #48]	; 0x30
 8000898:	b29b      	uxth	r3, r3
 800089a:	3b01      	subs	r3, #1
 800089c:	b29b      	uxth	r3, r3
 800089e:	b21a      	sxth	r2, r3
 80008a0:	687b      	ldr	r3, [r7, #4]
 80008a2:	861a      	strh	r2, [r3, #48]	; 0x30
		}
	}


	if(USART_Handle->RxBufferSize == 0)
 80008a4:	687b      	ldr	r3, [r7, #4]
 80008a6:	f9b3 3030 	ldrsh.w	r3, [r3, #48]	; 0x30
 80008aa:	2b00      	cmp	r3, #0
 80008ac:	d102      	bne.n	80008b4 <USART_ReceiveWith_IT+0x11a>
	{
		closeUSART_Rx_ISR(USART_Handle);
 80008ae:	6878      	ldr	r0, [r7, #4]
 80008b0:	f7ff ff11 	bl	80006d6 <closeUSART_Rx_ISR>
	}
}
 80008b4:	bf00      	nop
 80008b6:	3710      	adds	r7, #16
 80008b8:	46bd      	mov	sp, r7
 80008ba:	bd80      	pop	{r7, pc}

080008bc <USART_Init>:

void USART_Init(USART_HandleTypedef_t *USART_Handle)
{
 80008bc:	b580      	push	{r7, lr}
 80008be:	b088      	sub	sp, #32
 80008c0:	af00      	add	r7, sp, #0
 80008c2:	6078      	str	r0, [r7, #4]
	uint32_t tempReg = 0;
 80008c4:	2300      	movs	r3, #0
 80008c6:	613b      	str	r3, [r7, #16]
	uint32_t periphClock = 0;
 80008c8:	2300      	movs	r3, #0
 80008ca:	61fb      	str	r3, [r7, #28]
	uint32_t mantissaPart = 0;
 80008cc:	2300      	movs	r3, #0
 80008ce:	61bb      	str	r3, [r7, #24]
	uint32_t fractionPart = 0;
 80008d0:	2300      	movs	r3, #0
 80008d2:	617b      	str	r3, [r7, #20]
	uint32_t USART_DIV_Value = 0;
 80008d4:	2300      	movs	r3, #0
 80008d6:	60fb      	str	r3, [r7, #12]
	uint8_t tempValue = 0;
 80008d8:	2300      	movs	r3, #0
 80008da:	72fb      	strb	r3, [r7, #11]

	/********************************************/
	tempReg = USART_Handle->Instance->CR1;
 80008dc:	687b      	ldr	r3, [r7, #4]
 80008de:	681b      	ldr	r3, [r3, #0]
 80008e0:	68db      	ldr	r3, [r3, #12]
 80008e2:	613b      	str	r3, [r7, #16]
	tempReg |=  (USART_Handle->Init.Mode) |	(USART_Handle->Init.OverSampling) | (USART_Handle->Init.Parity) | \
 80008e4:	687b      	ldr	r3, [r7, #4]
 80008e6:	69da      	ldr	r2, [r3, #28]
 80008e8:	687b      	ldr	r3, [r7, #4]
 80008ea:	689b      	ldr	r3, [r3, #8]
 80008ec:	431a      	orrs	r2, r3
 80008ee:	687b      	ldr	r3, [r7, #4]
 80008f0:	691b      	ldr	r3, [r3, #16]
 80008f2:	431a      	orrs	r2, r3
				(USART_Handle->Init.WordLength);
 80008f4:	687b      	ldr	r3, [r7, #4]
 80008f6:	68db      	ldr	r3, [r3, #12]
	tempReg |=  (USART_Handle->Init.Mode) |	(USART_Handle->Init.OverSampling) | (USART_Handle->Init.Parity) | \
 80008f8:	4313      	orrs	r3, r2
 80008fa:	693a      	ldr	r2, [r7, #16]
 80008fc:	4313      	orrs	r3, r2
 80008fe:	613b      	str	r3, [r7, #16]
	USART_Handle->Instance->CR1 = tempReg;
 8000900:	687b      	ldr	r3, [r7, #4]
 8000902:	681b      	ldr	r3, [r3, #0]
 8000904:	693a      	ldr	r2, [r7, #16]
 8000906:	60da      	str	r2, [r3, #12]

	/********************************************/
	tempReg = USART_Handle->Instance->CR2;
 8000908:	687b      	ldr	r3, [r7, #4]
 800090a:	681b      	ldr	r3, [r3, #0]
 800090c:	691b      	ldr	r3, [r3, #16]
 800090e:	613b      	str	r3, [r7, #16]
	tempReg &= ~(0x1U << USART_CR2_STOP);
 8000910:	693b      	ldr	r3, [r7, #16]
 8000912:	f423 5380 	bic.w	r3, r3, #4096	; 0x1000
 8000916:	613b      	str	r3, [r7, #16]
	tempReg |= (USART_Handle->Init.StopBits);
 8000918:	687b      	ldr	r3, [r7, #4]
 800091a:	695b      	ldr	r3, [r3, #20]
 800091c:	693a      	ldr	r2, [r7, #16]
 800091e:	4313      	orrs	r3, r2
 8000920:	613b      	str	r3, [r7, #16]
	USART_Handle->Instance->CR2 =tempReg;
 8000922:	687b      	ldr	r3, [r7, #4]
 8000924:	681b      	ldr	r3, [r3, #0]
 8000926:	693a      	ldr	r2, [r7, #16]
 8000928:	611a      	str	r2, [r3, #16]

	/********************************************/
	tempReg = USART_Handle->Instance->CR3;
 800092a:	687b      	ldr	r3, [r7, #4]
 800092c:	681b      	ldr	r3, [r3, #0]
 800092e:	695b      	ldr	r3, [r3, #20]
 8000930:	613b      	str	r3, [r7, #16]
	tempReg |= (USART_Handle->Init.HardwareFlowControl);
 8000932:	687b      	ldr	r3, [r7, #4]
 8000934:	699b      	ldr	r3, [r3, #24]
 8000936:	693a      	ldr	r2, [r7, #16]
 8000938:	4313      	orrs	r3, r2
 800093a:	613b      	str	r3, [r7, #16]
	USART_Handle->Instance->CR3 =tempReg;
 800093c:	687b      	ldr	r3, [r7, #4]
 800093e:	681b      	ldr	r3, [r3, #0]
 8000940:	693a      	ldr	r2, [r7, #16]
 8000942:	615a      	str	r2, [r3, #20]

	/********************************************/
	if(USART_Handle->Instance == USART1 || USART_Handle->Instance == USART6)
 8000944:	687b      	ldr	r3, [r7, #4]
 8000946:	681b      	ldr	r3, [r3, #0]
 8000948:	4a37      	ldr	r2, [pc, #220]	; (8000a28 <USART_Init+0x16c>)
 800094a:	4293      	cmp	r3, r2
 800094c:	d004      	beq.n	8000958 <USART_Init+0x9c>
 800094e:	687b      	ldr	r3, [r7, #4]
 8000950:	681b      	ldr	r3, [r3, #0]
 8000952:	4a36      	ldr	r2, [pc, #216]	; (8000a2c <USART_Init+0x170>)
 8000954:	4293      	cmp	r3, r2
 8000956:	d103      	bne.n	8000960 <USART_Init+0xa4>
	{
		periphClock = RCC_GetPClock2();
 8000958:	f7ff fe7a 	bl	8000650 <RCC_GetPClock2>
 800095c:	61f8      	str	r0, [r7, #28]
 800095e:	e002      	b.n	8000966 <USART_Init+0xaa>
	}
	else
	{
		periphClock = RCC_GetPClock1();
 8000960:	f7ff fe4e 	bl	8000600 <RCC_GetPClock1>
 8000964:	61f8      	str	r0, [r7, #28]
	}

	if(USART_Handle->Init.OverSampling == USART_OVERSAMPLE_BY8)
 8000966:	687b      	ldr	r3, [r7, #4]
 8000968:	689b      	ldr	r3, [r3, #8]
 800096a:	f5b3 4f00 	cmp.w	r3, #32768	; 0x8000
 800096e:	d123      	bne.n	80009b8 <USART_Init+0xfc>
	{
		USART_DIV_Value = __USART_DIV_VALUE_8(periphClock, USART_Handle->Init.BaudRate);
 8000970:	69fa      	ldr	r2, [r7, #28]
 8000972:	4613      	mov	r3, r2
 8000974:	009b      	lsls	r3, r3, #2
 8000976:	4413      	add	r3, r2
 8000978:	009a      	lsls	r2, r3, #2
 800097a:	441a      	add	r2, r3
 800097c:	687b      	ldr	r3, [r7, #4]
 800097e:	685b      	ldr	r3, [r3, #4]
 8000980:	005b      	lsls	r3, r3, #1
 8000982:	fbb2 f3f3 	udiv	r3, r2, r3
 8000986:	60fb      	str	r3, [r7, #12]
		mantissaPart = (USART_DIV_Value / 100U);
 8000988:	68fb      	ldr	r3, [r7, #12]
 800098a:	4a29      	ldr	r2, [pc, #164]	; (8000a30 <USART_Init+0x174>)
 800098c:	fba2 2303 	umull	r2, r3, r2, r3
 8000990:	095b      	lsrs	r3, r3, #5
 8000992:	61bb      	str	r3, [r7, #24]
		fractionPart = (USART_DIV_Value) - (mantissaPart * 100U);
 8000994:	69bb      	ldr	r3, [r7, #24]
 8000996:	2264      	movs	r2, #100	; 0x64
 8000998:	fb02 f303 	mul.w	r3, r2, r3
 800099c:	68fa      	ldr	r2, [r7, #12]
 800099e:	1ad3      	subs	r3, r2, r3
 80009a0:	617b      	str	r3, [r7, #20]
		fractionPart = (((fractionPart * 8U) + 50U) / 100U) & (0x07U);
 80009a2:	697b      	ldr	r3, [r7, #20]
 80009a4:	00db      	lsls	r3, r3, #3
 80009a6:	3332      	adds	r3, #50	; 0x32
 80009a8:	4a21      	ldr	r2, [pc, #132]	; (8000a30 <USART_Init+0x174>)
 80009aa:	fba2 2303 	umull	r2, r3, r2, r3
 80009ae:	095b      	lsrs	r3, r3, #5
 80009b0:	f003 0307 	and.w	r3, r3, #7
 80009b4:	617b      	str	r3, [r7, #20]
 80009b6:	e022      	b.n	80009fe <USART_Init+0x142>
	}
	else
	{
		USART_DIV_Value = __USART_DIV_VALUE_16(periphClock, USART_Handle->Init.BaudRate);
 80009b8:	69fa      	ldr	r2, [r7, #28]
 80009ba:	4613      	mov	r3, r2
 80009bc:	009b      	lsls	r3, r3, #2
 80009be:	4413      	add	r3, r2
 80009c0:	009a      	lsls	r2, r3, #2
 80009c2:	441a      	add	r2, r3
 80009c4:	687b      	ldr	r3, [r7, #4]
 80009c6:	685b      	ldr	r3, [r3, #4]
 80009c8:	009b      	lsls	r3, r3, #2
 80009ca:	fbb2 f3f3 	udiv	r3, r2, r3
 80009ce:	60fb      	str	r3, [r7, #12]
		mantissaPart = (USART_DIV_Value / 100U);
 80009d0:	68fb      	ldr	r3, [r7, #12]
 80009d2:	4a17      	ldr	r2, [pc, #92]	; (8000a30 <USART_Init+0x174>)
 80009d4:	fba2 2303 	umull	r2, r3, r2, r3
 80009d8:	095b      	lsrs	r3, r3, #5
 80009da:	61bb      	str	r3, [r7, #24]
		fractionPart = (USART_DIV_Value) - (mantissaPart * 100U);
 80009dc:	69bb      	ldr	r3, [r7, #24]
 80009de:	2264      	movs	r2, #100	; 0x64
 80009e0:	fb02 f303 	mul.w	r3, r2, r3
 80009e4:	68fa      	ldr	r2, [r7, #12]
 80009e6:	1ad3      	subs	r3, r2, r3
 80009e8:	617b      	str	r3, [r7, #20]
		fractionPart = (((fractionPart * 16U) + 50U) / 100U) & (0x0FU);
 80009ea:	697b      	ldr	r3, [r7, #20]
 80009ec:	011b      	lsls	r3, r3, #4
 80009ee:	3332      	adds	r3, #50	; 0x32
 80009f0:	4a0f      	ldr	r2, [pc, #60]	; (8000a30 <USART_Init+0x174>)
 80009f2:	fba2 2303 	umull	r2, r3, r2, r3
 80009f6:	095b      	lsrs	r3, r3, #5
 80009f8:	f003 030f 	and.w	r3, r3, #15
 80009fc:	617b      	str	r3, [r7, #20]
	}

	tempValue |= (mantissaPart << 4U);
 80009fe:	69bb      	ldr	r3, [r7, #24]
 8000a00:	b2db      	uxtb	r3, r3
 8000a02:	011b      	lsls	r3, r3, #4
 8000a04:	b2da      	uxtb	r2, r3
 8000a06:	7afb      	ldrb	r3, [r7, #11]
 8000a08:	4313      	orrs	r3, r2
 8000a0a:	72fb      	strb	r3, [r7, #11]
	tempValue |= (fractionPart << 0U);
 8000a0c:	697b      	ldr	r3, [r7, #20]
 8000a0e:	b2da      	uxtb	r2, r3
 8000a10:	7afb      	ldrb	r3, [r7, #11]
 8000a12:	4313      	orrs	r3, r2
 8000a14:	72fb      	strb	r3, [r7, #11]

	USART_Handle->Instance->BRR = tempValue;
 8000a16:	687b      	ldr	r3, [r7, #4]
 8000a18:	681b      	ldr	r3, [r3, #0]
 8000a1a:	7afa      	ldrb	r2, [r7, #11]
 8000a1c:	609a      	str	r2, [r3, #8]
}
 8000a1e:	bf00      	nop
 8000a20:	3720      	adds	r7, #32
 8000a22:	46bd      	mov	sp, r7
 8000a24:	bd80      	pop	{r7, pc}
 8000a26:	bf00      	nop
 8000a28:	40010000 	.word	0x40010000
 8000a2c:	40011400 	.word	0x40011400
 8000a30:	51eb851f 	.word	0x51eb851f

08000a34 <USART_PeriphCmd>:



void USART_PeriphCmd(USART_HandleTypedef_t *USART_Handle, FunctionalState_t stateOfUSART)
{
 8000a34:	b480      	push	{r7}
 8000a36:	b083      	sub	sp, #12
 8000a38:	af00      	add	r7, sp, #0
 8000a3a:	6078      	str	r0, [r7, #4]
 8000a3c:	460b      	mov	r3, r1
 8000a3e:	70fb      	strb	r3, [r7, #3]
	if(stateOfUSART == ENABLE)
 8000a40:	78fb      	ldrb	r3, [r7, #3]
 8000a42:	2b01      	cmp	r3, #1
 8000a44:	d108      	bne.n	8000a58 <USART_PeriphCmd+0x24>
	{
		USART_Handle->Instance->CR1 |= (0x1U << USART_CR1_UE);
 8000a46:	687b      	ldr	r3, [r7, #4]
 8000a48:	681b      	ldr	r3, [r3, #0]
 8000a4a:	68da      	ldr	r2, [r3, #12]
 8000a4c:	687b      	ldr	r3, [r7, #4]
 8000a4e:	681b      	ldr	r3, [r3, #0]
 8000a50:	f442 5200 	orr.w	r2, r2, #8192	; 0x2000
 8000a54:	60da      	str	r2, [r3, #12]
	}
	else
	{
		USART_Handle->Instance->CR1 &= ~(0x0U << USART_CR1_UE);
	}
}
 8000a56:	e005      	b.n	8000a64 <USART_PeriphCmd+0x30>
		USART_Handle->Instance->CR1 &= ~(0x0U << USART_CR1_UE);
 8000a58:	687b      	ldr	r3, [r7, #4]
 8000a5a:	681a      	ldr	r2, [r3, #0]
 8000a5c:	687b      	ldr	r3, [r7, #4]
 8000a5e:	681b      	ldr	r3, [r3, #0]
 8000a60:	68d2      	ldr	r2, [r2, #12]
 8000a62:	60da      	str	r2, [r3, #12]
}
 8000a64:	bf00      	nop
 8000a66:	370c      	adds	r7, #12
 8000a68:	46bd      	mov	sp, r7
 8000a6a:	bc80      	pop	{r7}
 8000a6c:	4770      	bx	lr
	...

08000a70 <USART_TransmitData_IT>:
}



void USART_TransmitData_IT(USART_HandleTypedef_t *USART_Handle, uint8_t *pData, uint16_t dataSize)
{
 8000a70:	b480      	push	{r7}
 8000a72:	b087      	sub	sp, #28
 8000a74:	af00      	add	r7, sp, #0
 8000a76:	60f8      	str	r0, [r7, #12]
 8000a78:	60b9      	str	r1, [r7, #8]
 8000a7a:	4613      	mov	r3, r2
 8000a7c:	80fb      	strh	r3, [r7, #6]
	USART_BusState_t usartBusState = USART_Handle->TxStatus;
 8000a7e:	68fb      	ldr	r3, [r7, #12]
 8000a80:	f893 3026 	ldrb.w	r3, [r3, #38]	; 0x26
 8000a84:	75fb      	strb	r3, [r7, #23]

	if(usartBusState != USART_BUS_Tx)
 8000a86:	7dfb      	ldrb	r3, [r7, #23]
 8000a88:	2b01      	cmp	r3, #1
 8000a8a:	d015      	beq.n	8000ab8 <USART_TransmitData_IT+0x48>
	{
		USART_Handle->pTxBuffer = (uint8_t*)pData;
 8000a8c:	68fb      	ldr	r3, [r7, #12]
 8000a8e:	68ba      	ldr	r2, [r7, #8]
 8000a90:	621a      	str	r2, [r3, #32]
		USART_Handle->TxBufferSize = (uint16_t)dataSize;
 8000a92:	f9b7 2006 	ldrsh.w	r2, [r7, #6]
 8000a96:	68fb      	ldr	r3, [r7, #12]
 8000a98:	849a      	strh	r2, [r3, #36]	; 0x24
		USART_Handle->TxStatus = USART_BUS_Tx;
 8000a9a:	68fb      	ldr	r3, [r7, #12]
 8000a9c:	2201      	movs	r2, #1
 8000a9e:	f883 2026 	strb.w	r2, [r3, #38]	; 0x26
		USART_Handle->TxISR_Function = USART_SendWith_IT;
 8000aa2:	68fb      	ldr	r3, [r7, #12]
 8000aa4:	4a07      	ldr	r2, [pc, #28]	; (8000ac4 <USART_TransmitData_IT+0x54>)
 8000aa6:	629a      	str	r2, [r3, #40]	; 0x28

		USART_Handle->Instance->CR1 |= (0x1U << USART_CR1_TxEIE);
 8000aa8:	68fb      	ldr	r3, [r7, #12]
 8000aaa:	681b      	ldr	r3, [r3, #0]
 8000aac:	68da      	ldr	r2, [r3, #12]
 8000aae:	68fb      	ldr	r3, [r7, #12]
 8000ab0:	681b      	ldr	r3, [r3, #0]
 8000ab2:	f042 0280 	orr.w	r2, r2, #128	; 0x80
 8000ab6:	60da      	str	r2, [r3, #12]
	}
}
 8000ab8:	bf00      	nop
 8000aba:	371c      	adds	r7, #28
 8000abc:	46bd      	mov	sp, r7
 8000abe:	bc80      	pop	{r7}
 8000ac0:	4770      	bx	lr
 8000ac2:	bf00      	nop
 8000ac4:	0800070d 	.word	0x0800070d

08000ac8 <USART_ReceiveData_IT>:
}



void USART_ReceiveData_IT(USART_HandleTypedef_t *USART_Handle, uint8_t *pBuffer, uint16_t dataSize)
{
 8000ac8:	b480      	push	{r7}
 8000aca:	b087      	sub	sp, #28
 8000acc:	af00      	add	r7, sp, #0
 8000ace:	60f8      	str	r0, [r7, #12]
 8000ad0:	60b9      	str	r1, [r7, #8]
 8000ad2:	4613      	mov	r3, r2
 8000ad4:	80fb      	strh	r3, [r7, #6]
	USART_BusState_t usartBusState = USART_Handle->RxStatus;
 8000ad6:	68fb      	ldr	r3, [r7, #12]
 8000ad8:	f893 3032 	ldrb.w	r3, [r3, #50]	; 0x32
 8000adc:	75fb      	strb	r3, [r7, #23]

	if(usartBusState != USART_BUS_Rx)
 8000ade:	7dfb      	ldrb	r3, [r7, #23]
 8000ae0:	2b02      	cmp	r3, #2
 8000ae2:	d015      	beq.n	8000b10 <USART_ReceiveData_IT+0x48>
	{
		USART_Handle->pRxBuffer = (uint8_t*)pBuffer;
 8000ae4:	68fb      	ldr	r3, [r7, #12]
 8000ae6:	68ba      	ldr	r2, [r7, #8]
 8000ae8:	62da      	str	r2, [r3, #44]	; 0x2c
		USART_Handle->RxBufferSize = (uint16_t)dataSize;
 8000aea:	f9b7 2006 	ldrsh.w	r2, [r7, #6]
 8000aee:	68fb      	ldr	r3, [r7, #12]
 8000af0:	861a      	strh	r2, [r3, #48]	; 0x30
		USART_Handle->RxStatus = USART_BUS_Rx;
 8000af2:	68fb      	ldr	r3, [r7, #12]
 8000af4:	2202      	movs	r2, #2
 8000af6:	f883 2032 	strb.w	r2, [r3, #50]	; 0x32
		USART_Handle->RxISR_Function = USART_ReceiveWith_IT;
 8000afa:	68fb      	ldr	r3, [r7, #12]
 8000afc:	4a07      	ldr	r2, [pc, #28]	; (8000b1c <USART_ReceiveData_IT+0x54>)
 8000afe:	635a      	str	r2, [r3, #52]	; 0x34

		USART_Handle->Instance->CR1 |= (0x1U << USART_CR1_RXNEIE);
 8000b00:	68fb      	ldr	r3, [r7, #12]
 8000b02:	681b      	ldr	r3, [r3, #0]
 8000b04:	68da      	ldr	r2, [r3, #12]
 8000b06:	68fb      	ldr	r3, [r7, #12]
 8000b08:	681b      	ldr	r3, [r3, #0]
 8000b0a:	f042 0220 	orr.w	r2, r2, #32
 8000b0e:	60da      	str	r2, [r3, #12]
	}
}
 8000b10:	bf00      	nop
 8000b12:	371c      	adds	r7, #28
 8000b14:	46bd      	mov	sp, r7
 8000b16:	bc80      	pop	{r7}
 8000b18:	4770      	bx	lr
 8000b1a:	bf00      	nop
 8000b1c:	0800079b 	.word	0x0800079b

08000b20 <USART_InterruptHandler>:


void USART_InterruptHandler(USART_HandleTypedef_t *USART_Handle)
{
 8000b20:	b580      	push	{r7, lr}
 8000b22:	b084      	sub	sp, #16
 8000b24:	af00      	add	r7, sp, #0
 8000b26:	6078      	str	r0, [r7, #4]
	uint8_t flagValue = 0;
 8000b28:	2300      	movs	r3, #0
 8000b2a:	73fb      	strb	r3, [r7, #15]
	uint8_t interruptValue = 0;
 8000b2c:	2300      	movs	r3, #0
 8000b2e:	73bb      	strb	r3, [r7, #14]

	flagValue = (uint8_t)((USART_Handle->Instance->SR >> 7U) & 0x1U);
 8000b30:	687b      	ldr	r3, [r7, #4]
 8000b32:	681b      	ldr	r3, [r3, #0]
 8000b34:	681b      	ldr	r3, [r3, #0]
 8000b36:	09db      	lsrs	r3, r3, #7
 8000b38:	b2db      	uxtb	r3, r3
 8000b3a:	f003 0301 	and.w	r3, r3, #1
 8000b3e:	73fb      	strb	r3, [r7, #15]
	interruptValue = (uint8_t)((USART_Handle->Instance->CR1 >> 7U) & 0x1U);
 8000b40:	687b      	ldr	r3, [r7, #4]
 8000b42:	681b      	ldr	r3, [r3, #0]
 8000b44:	68db      	ldr	r3, [r3, #12]
 8000b46:	09db      	lsrs	r3, r3, #7
 8000b48:	b2db      	uxtb	r3, r3
 8000b4a:	f003 0301 	and.w	r3, r3, #1
 8000b4e:	73bb      	strb	r3, [r7, #14]

	if(flagValue && interruptValue)
 8000b50:	7bfb      	ldrb	r3, [r7, #15]
 8000b52:	2b00      	cmp	r3, #0
 8000b54:	d006      	beq.n	8000b64 <USART_InterruptHandler+0x44>
 8000b56:	7bbb      	ldrb	r3, [r7, #14]
 8000b58:	2b00      	cmp	r3, #0
 8000b5a:	d003      	beq.n	8000b64 <USART_InterruptHandler+0x44>
	{
		USART_Handle->TxISR_Function(USART_Handle);
 8000b5c:	687b      	ldr	r3, [r7, #4]
 8000b5e:	6a9b      	ldr	r3, [r3, #40]	; 0x28
 8000b60:	6878      	ldr	r0, [r7, #4]
 8000b62:	4798      	blx	r3
	}

	flagValue = (uint8_t)((USART_Handle->Instance->SR >> 5U) & 0x1U);
 8000b64:	687b      	ldr	r3, [r7, #4]
 8000b66:	681b      	ldr	r3, [r3, #0]
 8000b68:	681b      	ldr	r3, [r3, #0]
 8000b6a:	095b      	lsrs	r3, r3, #5
 8000b6c:	b2db      	uxtb	r3, r3
 8000b6e:	f003 0301 	and.w	r3, r3, #1
 8000b72:	73fb      	strb	r3, [r7, #15]
	interruptValue = (uint8_t)((USART_Handle->Instance->CR1 >> 5U) & 0x1U);
 8000b74:	687b      	ldr	r3, [r7, #4]
 8000b76:	681b      	ldr	r3, [r3, #0]
 8000b78:	68db      	ldr	r3, [r3, #12]
 8000b7a:	095b      	lsrs	r3, r3, #5
 8000b7c:	b2db      	uxtb	r3, r3
 8000b7e:	f003 0301 	and.w	r3, r3, #1
 8000b82:	73bb      	strb	r3, [r7, #14]

	if(flagValue && interruptValue)
 8000b84:	7bfb      	ldrb	r3, [r7, #15]
 8000b86:	2b00      	cmp	r3, #0
 8000b88:	d006      	beq.n	8000b98 <USART_InterruptHandler+0x78>
 8000b8a:	7bbb      	ldrb	r3, [r7, #14]
 8000b8c:	2b00      	cmp	r3, #0
 8000b8e:	d003      	beq.n	8000b98 <USART_InterruptHandler+0x78>
	{
		USART_Handle->RxISR_Function(USART_Handle);
 8000b90:	687b      	ldr	r3, [r7, #4]
 8000b92:	6b5b      	ldr	r3, [r3, #52]	; 0x34
 8000b94:	6878      	ldr	r0, [r7, #4]
 8000b96:	4798      	blx	r3
	}

}
 8000b98:	bf00      	nop
 8000b9a:	3710      	adds	r7, #16
 8000b9c:	46bd      	mov	sp, r7
 8000b9e:	bd80      	pop	{r7, pc}

08000ba0 <__libc_init_array>:
 8000ba0:	b570      	push	{r4, r5, r6, lr}
 8000ba2:	4d0d      	ldr	r5, [pc, #52]	; (8000bd8 <__libc_init_array+0x38>)
 8000ba4:	4c0d      	ldr	r4, [pc, #52]	; (8000bdc <__libc_init_array+0x3c>)
 8000ba6:	1b64      	subs	r4, r4, r5
 8000ba8:	10a4      	asrs	r4, r4, #2
 8000baa:	2600      	movs	r6, #0
 8000bac:	42a6      	cmp	r6, r4
 8000bae:	d109      	bne.n	8000bc4 <__libc_init_array+0x24>
 8000bb0:	4d0b      	ldr	r5, [pc, #44]	; (8000be0 <__libc_init_array+0x40>)
 8000bb2:	4c0c      	ldr	r4, [pc, #48]	; (8000be4 <__libc_init_array+0x44>)
 8000bb4:	f000 f818 	bl	8000be8 <_init>
 8000bb8:	1b64      	subs	r4, r4, r5
 8000bba:	10a4      	asrs	r4, r4, #2
 8000bbc:	2600      	movs	r6, #0
 8000bbe:	42a6      	cmp	r6, r4
 8000bc0:	d105      	bne.n	8000bce <__libc_init_array+0x2e>
 8000bc2:	bd70      	pop	{r4, r5, r6, pc}
 8000bc4:	f855 3b04 	ldr.w	r3, [r5], #4
 8000bc8:	4798      	blx	r3
 8000bca:	3601      	adds	r6, #1
 8000bcc:	e7ee      	b.n	8000bac <__libc_init_array+0xc>
 8000bce:	f855 3b04 	ldr.w	r3, [r5], #4
 8000bd2:	4798      	blx	r3
 8000bd4:	3601      	adds	r6, #1
 8000bd6:	e7f2      	b.n	8000bbe <__libc_init_array+0x1e>
 8000bd8:	08000c1c 	.word	0x08000c1c
 8000bdc:	08000c1c 	.word	0x08000c1c
 8000be0:	08000c1c 	.word	0x08000c1c
 8000be4:	08000c20 	.word	0x08000c20

08000be8 <_init>:
 8000be8:	b5f8      	push	{r3, r4, r5, r6, r7, lr}
 8000bea:	bf00      	nop
 8000bec:	bcf8      	pop	{r3, r4, r5, r6, r7}
 8000bee:	bc08      	pop	{r3}
 8000bf0:	469e      	mov	lr, r3
 8000bf2:	4770      	bx	lr

08000bf4 <_fini>:
 8000bf4:	b5f8      	push	{r3, r4, r5, r6, r7, lr}
 8000bf6:	bf00      	nop
 8000bf8:	bcf8      	pop	{r3, r4, r5, r6, r7}
 8000bfa:	bc08      	pop	{r3}
 8000bfc:	469e      	mov	lr, r3
 8000bfe:	4770      	bx	lr
